target datalayout = "e-m:e-p270:32:32-p271:32:32-p272:64:64-i64:64-i128:128-f80:128-n8:16:32:64-S128"
target triple = "x86_64-pc-linux-gnu"

%struct.auth_ops_t = type { ptr, ptr, ptr, ptr, ptr, ptr, ptr, ptr, ptr, ptr, ptr, ptr, ptr, ptr, ptr, ptr }
%struct.cred_wrapper_t = type { i32, [0 x i8] }

@ops = internal global ptr null, align 8
@.str.17 = private unnamed_addr constant [32 x i8] c"%s: pthread_rwlock_unlock(): %m\00", align 1
@.str.19 = private unnamed_addr constant [32 x i8] c"%s: pthread_rwlock_rdlock(): %m\00", align 1
@__func__.auth_g_get_uid = private unnamed_addr constant [15 x i8] c"auth_g_get_uid\00", align 1
@context_lock = internal global { { i32, i32, i32, i32, i32, i32, i32, i32, i8, [7 x i8], i64, i32, [4 x i8] } } zeroinitializer, align 8

; Function Attrs: nounwind uwtable
define dso_local i32 @auth_g_get_uid(ptr noundef %0) #0 {
  %2 = alloca i32, align 4
  %3 = alloca ptr, align 8
  %4 = alloca ptr, align 8
  %5 = alloca i32, align 4
  %6 = alloca i32, align 4
  %7 = alloca i32, align 4
  %8 = alloca i32, align 4
  %9 = alloca i32, align 4
  store ptr %0, ptr %3, align 8
  call void @llvm.lifetime.start.p0(i64 8, ptr %4) #6
  %10 = load ptr, ptr %3, align 8
  store ptr %10, ptr %4, align 8
  call void @llvm.lifetime.start.p0(i64 4, ptr %5) #6
  store i32 99, ptr %5, align 4
  call void @llvm.lifetime.start.p0(i64 4, ptr %6) #6
  store i32 99, ptr %6, align 4
  %11 = load ptr, ptr %4, align 8
  %12 = icmp ne ptr %11, null
  br i1 %12, label %14, label %13

13:                                               ; preds = %1
  store i32 99, ptr %2, align 4
  store i32 1, ptr %7, align 4
  br label %45

14:                                               ; preds = %1
  br label %15

15:                                               ; preds = %14
  call void @llvm.lifetime.start.p0(i64 4, ptr %8) #6
  %16 = call i32 @pthread_rwlock_rdlock(ptr noundef @context_lock) #6
  store i32 %16, ptr %8, align 4
  %17 = load i32, ptr %8, align 4
  %18 = icmp ne i32 %17, 0
  br i1 %18, label %19, label %22

19:                                               ; preds = %15
  %20 = load i32, ptr %8, align 4
  %21 = call ptr @__errno_location() #8
  store i32 %20, ptr %21, align 4
  call void (ptr, ...) @fatal_abort(ptr noundef @.str.19, ptr noundef @__func__.auth_g_get_uid) #7
  unreachable

22:                                               ; preds = %15
  call void @llvm.lifetime.end.p0(i64 4, ptr %8) #6
  br label %23

23:                                               ; preds = %22
  br label %24

24:                                               ; preds = %23
  %25 = load ptr, ptr @ops, align 8
  %26 = load ptr, ptr %4, align 8
  %27 = getelementptr inbounds nuw %struct.cred_wrapper_t, ptr %26, i32 0, i32 0
  %28 = load i32, ptr %27, align 4
  %29 = sext i32 %28 to i64
  %30 = getelementptr inbounds %struct.auth_ops_t, ptr %25, i64 %29
  %31 = getelementptr inbounds nuw %struct.auth_ops_t, ptr %30, i32 0, i32 6
  %32 = load ptr, ptr %31, align 8
  %33 = load ptr, ptr %3, align 8
  call void %32(ptr noundef %33, ptr noundef %5, ptr noundef %6)
  br label %34

34:                                               ; preds = %24
  call void @llvm.lifetime.start.p0(i64 4, ptr %9) #6
  %35 = call i32 @pthread_rwlock_unlock(ptr noundef @context_lock) #6
  store i32 %35, ptr %9, align 4
  %36 = load i32, ptr %9, align 4
  %37 = icmp ne i32 %36, 0
  br i1 %37, label %38, label %41

38:                                               ; preds = %34
  %39 = load i32, ptr %9, align 4
  %40 = call ptr @__errno_location() #8
  store i32 %39, ptr %40, align 4
  call void (ptr, ...) @fatal_abort(ptr noundef @.str.17, ptr noundef @__func__.auth_g_get_uid) #7
  unreachable

41:                                               ; preds = %34
  call void @llvm.lifetime.end.p0(i64 4, ptr %9) #6
  br label %42

42:                                               ; preds = %41
  br label %43

43:                                               ; preds = %42
  %44 = load i32, ptr %5, align 4
  store i32 %44, ptr %2, align 4
  store i32 1, ptr %7, align 4
  br label %45

45:                                               ; preds = %43, %13
  call void @llvm.lifetime.end.p0(i64 4, ptr %6) #6
  call void @llvm.lifetime.end.p0(i64 4, ptr %5) #6
  call void @llvm.lifetime.end.p0(i64 8, ptr %4) #6
  %46 = load i32, ptr %2, align 4
  ret i32 %46
}