; Function Attrs: nounwind uwtable
define dso_local i32 @auth_g_get_uid(ptr noundef %0) local_unnamed_addr #2 {
  %2 = alloca i32, align 4
  %3 = alloca i32, align 4
  call void @llvm.lifetime.start.p0(i64 4, ptr nonnull %2) #12
  store i32 99, ptr %2, align 4
  call void @llvm.lifetime.start.p0(i64 4, ptr nonnull %3) #12
  store i32 99, ptr %3, align 4
  %.not = icmp eq ptr %0, null
  br i1 %.not, label %19, label %4

4:                                                ; preds = %1
  %5 = tail call i32 @pthread_rwlock_rdlock(ptr noundef nonnull @context_lock) #12
  %.not11 = icmp eq i32 %5, 0
  br i1 %.not11, label %8, label %6

6:                                                ; preds = %4
  %7 = tail call ptr @__errno_location() #13
  store i32 %5, ptr %7, align 4
  tail call void (ptr, ...) @fatal_abort(ptr noundef nonnull @.str.19, ptr noundef nonnull @__func__.auth_g_get_uid) #11
  unreachable

8:                                                ; preds = %4
  %9 = load ptr, ptr @ops, align 8
  %10 = load i32, ptr %0, align 4
  %11 = sext i32 %10 to i64
  %12 = getelementptr inbounds %struct.auth_ops_t, ptr %9, i64 %11, i32 6
  %13 = load ptr, ptr %12, align 8
  call void %13(ptr noundef nonnull %0, ptr noundef nonnull %2, ptr noundef nonnull %3) #12
  %14 = call i32 @pthread_rwlock_unlock(ptr noundef nonnull @context_lock) #12
  %.not12 = icmp eq i32 %14, 0
  br i1 %.not12, label %17, label %15

15:                                               ; preds = %8
  %16 = tail call ptr @__errno_location() #13
  store i32 %14, ptr %16, align 4
  call void (ptr, ...) @fatal_abort(ptr noundef nonnull @.str.17, ptr noundef nonnull @__func__.auth_g_get_uid) #11
  unreachable

17:                                               ; preds = %8
  %18 = load i32, ptr %2, align 4
  br label %19

19:                                               ; preds = %1, %17
  %.0 = phi i32 [ %18, %17 ], [ 99, %1 ]
  call void @llvm.lifetime.end.p0(i64 4, ptr nonnull %3) #12
  call void @llvm.lifetime.end.p0(i64 4, ptr nonnull %2) #12
  ret i32 %.0
}